(lp1
ccopy_reg
_reconstructor
p2
(c__main__
MyServer
p3
c__builtin__
object
p4
NtRp5
(dp6
S'public_ips'
p7
(lp8
V37.153.98.54
p9
asS'type'
p10
Vvirtualmachine
p11
sS'name'
p12
Vvpn001
p13
sS'private_ips'
p14
(lp15
V10.224.24.10
p16
asS'id'
p17
V5bf3e792-e940-461c-bfaf-e169cf538683
p18
sbag2
(g3
g4
NtRp19
(dp20
g7
(lp21
sg10
Vvirtualmachine
p22
sg12
Vnexus000
p23
sg14
(lp24
V10.224.24.30
p25
asg17
V200c799f-e80f-e378-8a69-a4d227c8c36c
p26
sbag2
(g3
g4
NtRp27
(dp28
g7
(lp29
sg10
Vvirtualmachine
p30
sg12
Vgateway-jenkins000
p31
sg14
(lp32
V10.224.24.43
p33
asg17
V248bce7c-f717-6c0f-b47b-f84da8e876e6
p34
sbag2
(g3
g4
NtRp35
(dp36
g7
(lp37
sg10
Vvirtualmachine
p38
sg12
Vhomescreen-jenkins000
p39
sg14
(lp40
V10.224.24.49
p41
asg17
V9c9e59d2-d7b1-e21f-d9a9-dd343e0b710c
p42
sbag2
(g3
g4
NtRp43
(dp44
g7
(lp45
sg10
Vvirtualmachine
p46
sg12
Vhousehold-jenkins000
p47
sg14
(lp48
V10.224.24.63
p49
asg17
Vc04238bd-2831-c823-9af3-e29b2b823499
p50
sbag2
(g3
g4
NtRp51
(dp52
g7
(lp53
V37.153.97.174
p54
asg10
Vvirtualmachine
p55
sg12
Vhousehold-services000
p56
sg14
(lp57
V10.224.4.61
p58
asg17
Vf242dcc1-65c9-65ac-e28e-f8d8b9c6e1b5
p59
sbag2
(g3
g4
NtRp60
(dp61
g7
(lp62
V37.153.99.165
p63
asg10
Vvirtualmachine
p64
sg12
Vappstore000
p65
sg14
(lp66
V10.224.4.179
p67
asg17
Vce1799e8-548c-e9f8-fa55-8fb057a4c484
p68
sbag2
(g3
g4
NtRp69
(dp70
g7
(lp71
V37.153.96.174
p72
asg10
Vsmartmachine
p73
sg12
Vteamwall000
p74
sg14
(lp75
V10.224.24.72
p76
asg17
V8dac3fa5-5126-4930-c825-e831d10a3b04
p77
sbag2
(g3
g4
NtRp78
(dp79
g7
(lp80
V37.153.97.202
p81
asg10
Vvirtualmachine
p82
sg12
Vhomescreen-db000
p83
sg14
(lp84
V10.224.6.25
p85
asg17
Vb3e04e7e-843b-cc2a-fcd0-adaeb5b880e7
p86
sbag2
(g3
g4
NtRp87
(dp88
g7
(lp89
sg10
Vvirtualmachine
p90
sg12
Vsonar000
p91
sg14
(lp92
V10.224.24.74
p93
asg17
V2c5ab337-2a2b-e6b0-9214-cef191778591
p94
sbag2
(g3
g4
NtRp95
(dp96
g7
(lp97
sg10
Vvirtualmachine
p98
sg12
Vzabbix000
p99
sg14
(lp100
V10.224.24.79
p101
asg17
V0df57d75-c489-e78c-9b08-bc0091b2b1b2
p102
sbag2
(g3
g4
NtRp103
(dp104
g7
(lp105
V37.153.97.153
p106
asg10
Vvirtualmachine
p107
sg12
Vhomescreen000
p108
sg14
(lp109
V10.224.7.53
p110
asg17
V90c92ce7-2d0d-c79a-8469-ca8712a55074
p111
sbag2
(g3
g4
NtRp112
(dp113
g7
(lp114
V37.153.98.212
p115
asg10
Vvirtualmachine
p116
sg12
Vhomescreen001
p117
sg14
(lp118
V10.224.2.101
p119
asg17
Vc14127ce-cd7d-4a39-ff76-f90ff8feac3c
p120
sbag2
(g3
g4
NtRp121
(dp122
g7
(lp123
V37.153.96.76
p124
asg10
Vvirtualmachine
p125
sg12
Vappserver000
p126
sg14
(lp127
V10.224.1.201
p128
asg17
Vffa1559a-07bf-ed4a-dc4a-9b88ed655e9b
p129
sbag2
(g3
g4
NtRp130
(dp131
g7
(lp132
V37.153.97.77
p133
asg10
Vvirtualmachine
p134
sg12
Vappserver001
p135
sg14
(lp136
V10.224.1.145
p137
asg17
Vc99a08a7-54cd-662e-a38e-c5aaf7556e3b
p138
sbag2
(g3
g4
NtRp139
(dp140
g7
(lp141
V37.153.96.59
p142
asg10
Vvirtualmachine
p143
sg12
Vappstore001
p144
sg14
(lp145
V10.224.6.55
p146
asg17
Vf8ea5314-920e-e842-b23e-a1de3ea68e0c
p147
sbag2
(g3
g4
NtRp148
(dp149
g7
(lp150
sg10
Vsmartmachine
p151
sg12
Vzabbix-postgres000
p152
sg14
(lp153
V10.224.24.88
p154
asg17
Vbb3e1df2-7f0a-6bfb-f513-e3909bab24d7
p155
sbag2
(g3
g4
NtRp156
(dp157
g7
(lp158
V37.153.96.91
p159
asg10
Vvirtualmachine
p160
sg12
Vhousehold-services001
p161
sg14
(lp162
V10.224.0.45
p163
asg17
V52508bbc-9fee-c915-a1eb-f83958cb2017
p164
sbag2
(g3
g4
NtRp165
(dp166
g7
(lp167
V37.153.97.95
p168
asg10
Vvirtualmachine
p169
sg12
Vusermanagement001
p170
sg14
(lp171
V10.224.1.71
p172
asg17
Vd4a742a4-fa25-c3e6-df44-a9877fb9b7ed
p173
sbag2
(g3
g4
NtRp174
(dp175
g7
(lp176
V37.153.97.82
p177
asg10
Vvirtualmachine
p178
sg12
Vusermanagement000
p179
sg14
(lp180
V10.224.1.215
p181
asg17
V81e93ea5-975a-4e10-b90e-d54674798ff5
p182
sbag2
(g3
g4
NtRp183
(dp184
g7
(lp185
V37.153.96.239
p186
asg10
Vvirtualmachine
p187
sg12
Vusermanagement-ldap000
p188
sg14
(lp189
V10.224.6.27
p190
asg17
V01455776-5ad7-61c2-f540-8ed55834a0d2
p191
sba.